target datalayout = "e-m:e-p270:32:32-p271:32:32-p272:64:64-i64:64-i128:128-f80:128-n8:16:32:64-S128"
target triple = "x86_64-pc-linux-gnu"

%"class.OpenImageIO::v3_1_0::SHA1" = type <{ ptr, i8, [7 x i8] }>
%"class.OpenImageIO::v3_1_0::CSHA1" = type { [5 x i32], [2 x i32], [1 x i32], [64 x i8], [20 x i8], [3 x i32], [64 x i8], ptr }
%"struct.OpenImageIO::v3_1_0::SHA1::Hash" = type { [20 x i8] }

; Function Attrs: mustprogress nounwind uwtable
define hidden noundef zeroext i1 @_ZNK11OpenImageIO6v3_1_05CSHA17GetHashEPh(ptr noundef nonnull align 8 dereferenceable(200) %0, ptr noundef %1) #7 align 2 {
  %3 = alloca i1, align 1
  %4 = alloca ptr, align 8
  %5 = alloca ptr, align 8
  store ptr %0, ptr %4, align 8, !tbaa !20
  store ptr %1, ptr %5, align 8, !tbaa !21
  %6 = load ptr, ptr %4, align 8
  %7 = load ptr, ptr %5, align 8, !tbaa !21
  %8 = icmp eq ptr %7, null
  br i1 %8, label %9, label %10

9:                                                ; preds = %2
  store i1 false, ptr %3, align 1
  br label %14

10:                                               ; preds = %2
  %11 = load ptr, ptr %5, align 8, !tbaa !21
  %12 = getelementptr inbounds nuw %"class.OpenImageIO::v3_1_0::CSHA1", ptr %6, i32 0, i32 4
  %13 = getelementptr inbounds [20 x i8], ptr %12, i64 0, i64 0
  call void @llvm.memcpy.p0.p0.i64(ptr align 1 %11, ptr align 8 %13, i64 20, i1 false)
  store i1 true, ptr %3, align 1
  br label %14

14:                                               ; preds = %10, %9
  %15 = load i1, ptr %3, align 1
  ret i1 %15
}

; Function Attrs: mustprogress uwtable
define void @_ZN11OpenImageIO6v3_1_04SHA17gethashERNS1_4HashE(ptr noundef nonnull align 8 dereferenceable(9) %0, ptr noundef nonnull align 1 dereferenceable(20) %1) #5 align 2 {
  %3 = alloca ptr, align 8
  %4 = alloca ptr, align 8
  store ptr %0, ptr %3, align 8, !tbaa !3
  store ptr %1, ptr %4, align 8, !tbaa !27
  %5 = load ptr, ptr %3, align 8
  %6 = getelementptr inbounds nuw %"class.OpenImageIO::v3_1_0::SHA1", ptr %5, i32 0, i32 1
  %7 = load i8, ptr %6, align 8, !tbaa !15, !range !16, !noundef !17
  %8 = trunc i8 %7 to i1
  br i1 %8, label %13, label %9

9:                                                ; preds = %2
  %10 = getelementptr inbounds nuw %"class.OpenImageIO::v3_1_0::SHA1", ptr %5, i32 0, i32 0
  %11 = load ptr, ptr %10, align 8, !tbaa !11
  call void @_ZN11OpenImageIO6v3_1_05CSHA15FinalEv(ptr noundef nonnull align 8 dereferenceable(200) %11)
  %12 = getelementptr inbounds nuw %"class.OpenImageIO::v3_1_0::SHA1", ptr %5, i32 0, i32 1
  store i8 1, ptr %12, align 8, !tbaa !15
  br label %13

13:                                               ; preds = %9, %2
  %14 = getelementptr inbounds nuw %"class.OpenImageIO::v3_1_0::SHA1", ptr %5, i32 0, i32 0
  %15 = load ptr, ptr %14, align 8, !tbaa !11
  %16 = load ptr, ptr %4, align 8, !tbaa !27
  %17 = getelementptr inbounds nuw %"struct.OpenImageIO::v3_1_0::SHA1::Hash", ptr %16, i32 0, i32 0
  %18 = getelementptr inbounds [20 x i8], ptr %17, i64 0, i64 0
  %19 = call noundef zeroext i1 @_ZNK11OpenImageIO6v3_1_05CSHA17GetHashEPh(ptr noundef nonnull align 8 dereferenceable(200) %15, ptr noundef %18)
  ret void
}