; Function Attrs: mustprogress nofree norecurse nosync nounwind memory(readwrite, inaccessiblemem: none) uwtable
define void @_ZN11OpenImageIO6v3_1_04SHA17gethashERNS1_4HashE(ptr noundef nonnull align 8 captures(none) dereferenceable(9) %0, ptr noundef nonnull writeonly align 1 captures(none) dereferenceable(20) initializes((0, 20)) %1) local_unnamed_addr #9 align 2 {
  %3 = getelementptr inbounds nuw i8, ptr %0, i64 8
  %4 = load i8, ptr %3, align 8, !tbaa !14, !range !15, !noundef !16
  %5 = trunc nuw i8 %4 to i1
  br i1 %5, label %8, label %6

6:                                                ; preds = %2
  %7 = load ptr, ptr %0, align 8, !tbaa !10
  tail call void @_ZN11OpenImageIO6v3_1_05CSHA15FinalEv(ptr noundef nonnull align 8 dereferenceable(200) %7)
  store i8 1, ptr %3, align 8, !tbaa !14
  br label %8

8:                                                ; preds = %6, %2
  %9 = load ptr, ptr %0, align 8, !tbaa !10
  %10 = getelementptr inbounds nuw i8, ptr %9, i64 96
  tail call void @llvm.memcpy.p0.p0.i64(ptr noundef nonnull align 1 dereferenceable(20) %1, ptr noundef nonnull readonly align 8 dereferenceable(20) %10, i64 20, i1 false)
  ret void
}